target datalayout = "e-m:e-p270:32:32-p271:32:32-p272:64:64-i64:64-i128:128-f80:128-n8:16:32:64-S128"
target triple = "x86_64-pc-linux-gnu"

; Function Attrs: inlinehint nounwind uwtable
define internal i32 @mbedtls_ssl_get_pk_type_and_md_alg_from_sig_alg(i16 noundef zeroext %0, ptr noundef %1, ptr noundef %2) #3 {
  %4 = alloca i32, align 4
  %5 = alloca i16, align 2
  %6 = alloca ptr, align 8
  %7 = alloca ptr, align 8
  store i16 %0, ptr %5, align 2, !tbaa !92
  store ptr %1, ptr %6, align 8, !tbaa !88
  store ptr %2, ptr %7, align 8, !tbaa !88
  %8 = load i16, ptr %5, align 2, !tbaa !92
  %9 = zext i16 %8 to i32
  %10 = and i32 %9, 255
  %11 = trunc i32 %10 to i8
  %12 = call i32 @mbedtls_ssl_pk_alg_from_sig(i8 noundef zeroext %11)
  %13 = load ptr, ptr %6, align 8, !tbaa !88
  store i32 %12, ptr %13, align 4, !tbaa !10
  %14 = load i16, ptr %5, align 2, !tbaa !92
  %15 = zext i16 %14 to i32
  %16 = ashr i32 %15, 8
  %17 = and i32 %16, 255
  %18 = trunc i32 %17 to i8
  %19 = call i32 @mbedtls_ssl_md_alg_from_hash(i8 noundef zeroext %18)
  %20 = load ptr, ptr %7, align 8, !tbaa !88
  store i32 %19, ptr %20, align 4, !tbaa !10
  %21 = load ptr, ptr %6, align 8, !tbaa !88
  %22 = load i32, ptr %21, align 4, !tbaa !10
  %23 = icmp ne i32 %22, 0
  br i1 %23, label %24, label %29

24:                                               ; preds = %3
  %25 = load ptr, ptr %7, align 8, !tbaa !88
  %26 = load i32, ptr %25, align 4, !tbaa !10
  %27 = icmp ne i32 %26, 0
  br i1 %27, label %28, label %29

28:                                               ; preds = %24
  store i32 0, ptr %4, align 4
  br label %43

29:                                               ; preds = %24, %3
  %30 = load i16, ptr %5, align 2, !tbaa !92
  %31 = zext i16 %30 to i32
  switch i32 %31, label %41 [
    i32 2052, label %32
    i32 2053, label %35
    i32 2054, label %38
  ]

32:                                               ; preds = %29
  %33 = load ptr, ptr %7, align 8, !tbaa !88
  store i32 9, ptr %33, align 4, !tbaa !10
  %34 = load ptr, ptr %6, align 8, !tbaa !88
  store i32 6, ptr %34, align 4, !tbaa !10
  br label %42

35:                                               ; preds = %29
  %36 = load ptr, ptr %7, align 8, !tbaa !88
  store i32 10, ptr %36, align 4, !tbaa !10
  %37 = load ptr, ptr %6, align 8, !tbaa !88
  store i32 6, ptr %37, align 4, !tbaa !10
  br label %42

38:                                               ; preds = %29
  %39 = load ptr, ptr %7, align 8, !tbaa !88
  store i32 11, ptr %39, align 4, !tbaa !10
  %40 = load ptr, ptr %6, align 8, !tbaa !88
  store i32 6, ptr %40, align 4, !tbaa !10
  br label %42

41:                                               ; preds = %29
  store i32 -28800, ptr %4, align 4
  br label %43

42:                                               ; preds = %38, %35, %32
  store i32 0, ptr %4, align 4
  br label %43

43:                                               ; preds = %42, %41, %28
  %44 = load i32, ptr %4, align 4
  ret i32 %44
}