; Function Attrs: inlinehint nounwind uwtable
define internal fastcc range(i32 -28800, 1) i32 @mbedtls_ssl_get_pk_type_and_md_alg_from_sig_alg(i16 noundef zeroext %0, ptr noundef nonnull captures(none) initializes((0, 4)) %1, ptr noundef nonnull writeonly captures(none) initializes((0, 4)) %2) unnamed_addr #9 {
  %4 = trunc i16 %0 to i8
  %5 = tail call i32 @mbedtls_ssl_pk_alg_from_sig(i8 noundef zeroext %4) #14
  store i32 %5, ptr %1, align 4, !tbaa !77
  %6 = lshr i16 %0, 8
  %7 = trunc nuw i16 %6 to i8
  %8 = tail call i32 @mbedtls_ssl_md_alg_from_hash(i8 noundef zeroext %7) #14
  store i32 %8, ptr %2, align 4, !tbaa !77
  %9 = load i32, ptr %1, align 4, !tbaa !77
  %.not = icmp eq i32 %9, 0
  %.not13 = icmp eq i32 %8, 0
  %or.cond = select i1 %.not, i1 true, i1 %.not13
  br i1 %or.cond, label %10, label %12

10:                                               ; preds = %3
  %switch.tableidx = add i16 %0, -2052
  %11 = icmp ult i16 %switch.tableidx, 3
  br i1 %11, label %switch.lookup, label %12

switch.lookup:                                    ; preds = %10
  %narrow = add nsw i16 %0, -2043
  %switch.offset = zext nneg i16 %narrow to i32
  store i32 %switch.offset, ptr %2, align 4, !tbaa !77
  store i32 6, ptr %1, align 4, !tbaa !77
  br label %12

12:                                               ; preds = %10, %switch.lookup, %3
  %.0 = phi i32 [ 0, %3 ], [ -28800, %10 ], [ 0, %switch.lookup ]
  ret i32 %.0
}